(lp0
(ishoulders.scrape_scholar
Paper
p1
(dp2
S'title_href'
p3
V/scholar?cites=8462234612182583420&as_sdt=40000005&sciodt=0,22&hl=en&num=5
p4
sS'citers_page_href'
p5
g4
sS'author_list'
p6
(lp7
(V\u2026
p8
Ntp9
a(V Joint United Nations Programme on HIV/AIDS\u2026 - 2011 - World Health Organization
p10
Ntp11
asS'num_citers'
p12
I422
sS'title'
p13
V[CITATION][C] Global HIV/AIDS response: epidemic update and health sector progress towards universal access: progress report 2011
p14
sba(ishoulders.scrape_scholar
Paper
p15
(dp16
g3
Vhttp://www.ncbi.nlm.nih.gov/pmc/articles/PMC3235490/
p17
sg5
V/scholar?cites=4554467849365634593&as_sdt=40000005&sciodt=0,22&hl=en&num=5
p18
sg6
(lp19
(VTIHIVC Study - Science (New York
p20
Ntp21
a(V NY)
p22
Ntp23
a(V 2010 - ncbi.nlm.nih.gov
p24
Ntp25
asg12
I442
sg13
V[HTML][HTML] The major genetic determinants of HIV-1 control affect HLA class I peptide presentation
p26
sba(ishoulders.scrape_scholar
Paper
p27
(dp28
g3
Vhttp://www.sciencedirect.com/science/article/pii/S0140673697074394
p29
sg5
V/scholar?cites=13231354783591323594&as_sdt=40000005&sciodt=0,22&hl=en&num=5
p30
sg6
(lp31
(VJA Kelly
p32
Ntp33
a(V DA Murphy
p34
Ntp35
a(V KJ Sikkema
p36
Ntp37
a(V TL McAuliffe\u2026 - The Lancet
p38
Ntp39
a(V 1997 - Elsevier
p40
Ntp41
asg12
I362
sg13
VRandomised, controlled, community-level HIV-prevention intervention for sexual-risk behaviour among homosexual men in US cities
p42
sba(ishoulders.scrape_scholar
Paper
p43
(dp44
g3
Vhttp://www.ajol.info/index.php/ahs/article/view/6826
p45
sg5
V/scholar?cites=10246465880277666609&as_sdt=40000005&sciodt=0,22&hl=en&num=5
p46
sg6
(lp47
(VWorld Health Organization - African Health Sciences
p48
Ntp49
a(V 2001 - ajol.info
p50
Ntp51
asg12
I6201
sg13
V\u2026  POINTS: Provisional WHO/UNAIDS Secretariat Recommendations on the Use of Cotrimoxazole Prophylaxis in Adults and Children Living with HIV/AIDS in Africa
p52
sba(ishoulders.scrape_scholar
Paper
p53
(dp54
g3
V/scholar?cites=2082315156061760654&as_sdt=40000005&sciodt=0,22&hl=en&num=5
p55
sg5
g55
sg6
(lp56
(VJoint United Nations Programme on HIV/AIDS - 2012 - UNAIDS
p57
Ntp58
asg12
I369
sg13
V[CITATION][C] Global report: UNAIDS report on the global AIDS epidemic: 2012
p59
sba.